target datalayout = "e-m:e-p270:32:32-p271:32:32-p272:64:64-i64:64-i128:128-f80:128-n8:16:32:64-S128"
target triple = "x86_64-pc-linux-gnu"

%struct.H5C_class_t = type { i32, ptr, i32, i32, ptr, ptr, ptr, ptr, ptr, ptr, ptr, ptr, ptr, ptr }
%struct.H5B2_internal_t = type { %struct.H5C_cache_entry_t, ptr, ptr, ptr, i16, i16, ptr, ptr, i64 }
%struct.H5C_cache_entry_t = type { ptr, i64, i64, ptr, i8, ptr, i8, i8, i8, i8, i32, i8, i8, i8, i8, i8, i32, ptr, i32, i32, i32, i32, i32, i8, i8, ptr, ptr, ptr, ptr, ptr, ptr, i8, i32, i8, i64, ptr, i64, i64, i32, i8, i32, i32, i8, ptr, ptr, ptr }
%struct.H5B2_hdr_t = type { %struct.H5C_cache_entry_t, %struct.H5B2_node_ptr_t, i8, i8, i32, i32, i16, i8, ptr, i64, i64, i64, i64, i8, i8, i8, ptr, ptr, ptr, ptr, ptr, ptr, ptr, i8, ptr, ptr, i64, ptr, ptr }
%struct.H5B2_node_ptr_t = type { i64, i16, i64 }
%struct.H5B2_internal_cache_ud_t = type { ptr, ptr, ptr, i16, i16 }

@H5B2_init_g = external global i8, align 1
@H5_libterm_g = external global i8, align 1
@.str.1 = private unnamed_addr constant [106 x i8] c"generated/home/dtcxzyw/WorkSpace/Projects/compilers/llvm-opt-benchmark/bench/hdf5/hdf5/src/H5B2internal.c\00", align 1
@H5E_BTREE_g = external global i64, align 8
@H5AC_BT2_INT = external constant [1 x %struct.H5C_class_t], align 16
@H5E_CANTSET_g = external global i64, align 8
@__func__.H5B2__protect_internal = private unnamed_addr constant [23 x i8] c"H5B2__protect_internal\00", align 1
@H5E_CANTPROTECT_g = external global i64, align 8
@.str.12 = private unnamed_addr constant [39 x i8] c"unable to protect B-tree internal node\00", align 1
@.str.13 = private unnamed_addr constant [56 x i8] c"unable to add v2 B-tree internal node as child of proxy\00", align 1
@H5E_CANTCOPY_g = external global i64, align 8
@.str.14 = private unnamed_addr constant [31 x i8] c"unable to shadow internal node\00", align 1
@H5E_CANTUNDEPEND_g = external global i64, align 8
@.str.15 = private unnamed_addr constant [83 x i8] c"unable to destroy flush dependency between internal node and v2 B-tree 'top' proxy\00", align 1
@H5E_CANTUNPROTECT_g = external global i64, align 8
@.str.16 = private unnamed_addr constant [60 x i8] c"unable to unprotect v2 B-tree internal node, address = %llu\00", align 1

; Function Attrs: nounwind uwtable
define ptr @H5B2__protect_internal(ptr noundef %0, ptr noundef %1, ptr noundef %2, i16 noundef zeroext %3, i1 noundef zeroext %4, i32 noundef %5) #0 {
  %7 = alloca ptr, align 8
  %8 = alloca ptr, align 8
  %9 = alloca ptr, align 8
  %10 = alloca i16, align 2
  %11 = alloca i8, align 1
  %12 = alloca i32, align 4
  %13 = alloca %struct.H5B2_internal_cache_ud_t, align 8
  %14 = alloca ptr, align 8
  %15 = alloca ptr, align 8
  %16 = alloca i8, align 1
  store ptr %0, ptr %7, align 8, !tbaa !3
  store ptr %1, ptr %8, align 8, !tbaa !8
  store ptr %2, ptr %9, align 8, !tbaa !8
  store i16 %3, ptr %10, align 2, !tbaa !9
  %17 = zext i1 %4 to i8
  store i8 %17, ptr %11, align 1, !tbaa !13
  store i32 %5, ptr %12, align 4, !tbaa !15
  call void @llvm.lifetime.start.p0(i64 32, ptr %13) #5
  call void @llvm.lifetime.start.p0(i64 8, ptr %14) #5
  store ptr null, ptr %14, align 8, !tbaa !11
  call void @llvm.lifetime.start.p0(i64 8, ptr %15) #5
  store ptr null, ptr %15, align 8, !tbaa !11
  call void @llvm.lifetime.start.p0(i64 1, ptr %16) #5
  store i8 0, ptr %16, align 1, !tbaa !13
  %18 = load i8, ptr @H5B2_init_g, align 1, !tbaa !13, !range !17, !noundef !18
  %19 = trunc i8 %18 to i1
  br i1 %19, label %24, label %20

20:                                               ; preds = %6
  %21 = load i8, ptr @H5_libterm_g, align 1, !tbaa !13, !range !17, !noundef !18
  %22 = trunc i8 %21 to i1
  %23 = xor i1 %22, true
  br label %24

24:                                               ; preds = %20, %6
  %25 = phi i1 [ true, %6 ], [ %23, %20 ]
  %26 = xor i1 %25, true
  %27 = xor i1 %26, true
  %28 = zext i1 %27 to i32
  %29 = sext i32 %28 to i64
  %30 = call i64 @llvm.expect.i64(i64 %29, i64 1)
  %31 = icmp ne i64 %30, 0
  br i1 %31, label %32, label %219

32:                                               ; preds = %24
  %33 = load ptr, ptr %7, align 8, !tbaa !3
  %34 = getelementptr inbounds nuw %struct.H5B2_hdr_t, ptr %33, i32 0, i32 8
  %35 = load ptr, ptr %34, align 8, !tbaa !51
  %36 = getelementptr inbounds nuw %struct.H5B2_internal_cache_ud_t, ptr %13, i32 0, i32 0
  store ptr %35, ptr %36, align 8, !tbaa !56
  %37 = load ptr, ptr %7, align 8, !tbaa !3
  %38 = getelementptr inbounds nuw %struct.H5B2_internal_cache_ud_t, ptr %13, i32 0, i32 1
  store ptr %37, ptr %38, align 8, !tbaa !58
  %39 = load ptr, ptr %8, align 8, !tbaa !8
  %40 = getelementptr inbounds nuw %struct.H5B2_internal_cache_ud_t, ptr %13, i32 0, i32 2
  store ptr %39, ptr %40, align 8, !tbaa !59
  %41 = load ptr, ptr %9, align 8, !tbaa !8
  %42 = getelementptr inbounds nuw %struct.H5B2_node_ptr_t, ptr %41, i32 0, i32 1
  %43 = load i16, ptr %42, align 8, !tbaa !60
  %44 = getelementptr inbounds nuw %struct.H5B2_internal_cache_ud_t, ptr %13, i32 0, i32 3
  store i16 %43, ptr %44, align 8, !tbaa !61
  %45 = load i16, ptr %10, align 2, !tbaa !9
  %46 = getelementptr inbounds nuw %struct.H5B2_internal_cache_ud_t, ptr %13, i32 0, i32 4
  store i16 %45, ptr %46, align 2, !tbaa !62
  %47 = load ptr, ptr %7, align 8, !tbaa !3
  %48 = getelementptr inbounds nuw %struct.H5B2_hdr_t, ptr %47, i32 0, i32 8
  %49 = load ptr, ptr %48, align 8, !tbaa !51
  %50 = load ptr, ptr %9, align 8, !tbaa !8
  %51 = getelementptr inbounds nuw %struct.H5B2_node_ptr_t, ptr %50, i32 0, i32 0
  %52 = load i64, ptr %51, align 8, !tbaa !53
  %53 = load i32, ptr %12, align 4, !tbaa !15
  %54 = call ptr @H5AC_protect(ptr noundef %49, ptr noundef @H5AC_BT2_INT, i64 noundef %52, ptr noundef %13, i32 noundef %53)
  store ptr %54, ptr %14, align 8, !tbaa !11
  %55 = icmp eq ptr null, %54
  br i1 %55, label %56, label %75

56:                                               ; preds = %32
  br label %57

57:                                               ; preds = %56
  br label %58

58:                                               ; preds = %57
  br label %59

59:                                               ; preds = %58
  %60 = load i64, ptr @H5E_BTREE_g, align 8, !tbaa !19
  %61 = load i64, ptr @H5E_CANTPROTECT_g, align 8, !tbaa !19
  %62 = call i32 (ptr, ptr, i32, i64, i64, ptr, ...) @H5E_printf_stack(ptr noundef @.str.1, ptr noundef @__func__.H5B2__protect_internal, i32 noundef 204, i64 noundef %60, i64 noundef %61, ptr noundef @.str.12)
  br label %63

63:                                               ; preds = %59
  br label %64

64:                                               ; preds = %63
  store i8 1, ptr %16, align 1, !tbaa !13
  %65 = load i8, ptr %16, align 1, !tbaa !13, !range !17, !noundef !18
  %66 = trunc i8 %65 to i1
  %67 = zext i1 %66 to i8
  store i8 %67, ptr %16, align 1, !tbaa !13
  br label %68

68:                                               ; preds = %64
  br label %69

69:                                               ; preds = %68
  br label %70

70:                                               ; preds = %69
  store ptr null, ptr %15, align 8, !tbaa !11
  br label %150

71:                                               ; No predecessors!
  br label %72

72:                                               ; preds = %71
  br label %73

73:                                               ; preds = %72
  br label %74

74:                                               ; preds = %73
  br label %75

75:                                               ; preds = %74, %32
  %76 = load ptr, ptr %7, align 8, !tbaa !3
  %77 = getelementptr inbounds nuw %struct.H5B2_hdr_t, ptr %76, i32 0, i32 24
  %78 = load ptr, ptr %77, align 8, !tbaa !54
  %79 = icmp ne ptr %78, null
  br i1 %79, label %80, label %120

80:                                               ; preds = %75
  %81 = load ptr, ptr %14, align 8, !tbaa !11
  %82 = getelementptr inbounds nuw %struct.H5B2_internal_t, ptr %81, i32 0, i32 6
  %83 = load ptr, ptr %82, align 8, !tbaa !55
  %84 = icmp eq ptr null, %83
  br i1 %84, label %85, label %120

85:                                               ; preds = %80
  %86 = load ptr, ptr %7, align 8, !tbaa !3
  %87 = getelementptr inbounds nuw %struct.H5B2_hdr_t, ptr %86, i32 0, i32 24
  %88 = load ptr, ptr %87, align 8, !tbaa !54
  %89 = load ptr, ptr %7, align 8, !tbaa !3
  %90 = getelementptr inbounds nuw %struct.H5B2_hdr_t, ptr %89, i32 0, i32 8
  %91 = load ptr, ptr %90, align 8, !tbaa !51
  %92 = load ptr, ptr %14, align 8, !tbaa !11
  %93 = call i32 @H5AC_proxy_entry_add_child(ptr noundef %88, ptr noundef %91, ptr noundef %92)
  %94 = icmp slt i32 %93, 0
  br i1 %94, label %95, label %114

95:                                               ; preds = %85
  br label %96

96:                                               ; preds = %95
  br label %97

97:                                               ; preds = %96
  br label %98

98:                                               ; preds = %97
  %99 = load i64, ptr @H5E_BTREE_g, align 8, !tbaa !19
  %100 = load i64, ptr @H5E_CANTSET_g, align 8, !tbaa !19
  %101 = call i32 (ptr, ptr, i32, i64, i64, ptr, ...) @H5E_printf_stack(ptr noundef @.str.1, ptr noundef @__func__.H5B2__protect_internal, i32 noundef 211, i64 noundef %99, i64 noundef %100, ptr noundef @.str.13)
  br label %102

102:                                              ; preds = %98
  br label %103

103:                                              ; preds = %102
  store i8 1, ptr %16, align 1, !tbaa !13
  %104 = load i8, ptr %16, align 1, !tbaa !13, !range !17, !noundef !18
  %105 = trunc i8 %104 to i1
  %106 = zext i1 %105 to i8
  store i8 %106, ptr %16, align 1, !tbaa !13
  br label %107

107:                                              ; preds = %103
  br label %108

108:                                              ; preds = %107
  br label %109

109:                                              ; preds = %108
  store ptr null, ptr %15, align 8, !tbaa !11
  br label %150

110:                                              ; No predecessors!
  br label %111

111:                                              ; preds = %110
  br label %112

112:                                              ; preds = %111
  br label %113

113:                                              ; preds = %112
  br label %114

114:                                              ; preds = %113, %85
  %115 = load ptr, ptr %7, align 8, !tbaa !3
  %116 = getelementptr inbounds nuw %struct.H5B2_hdr_t, ptr %115, i32 0, i32 24
  %117 = load ptr, ptr %116, align 8, !tbaa !54
  %118 = load ptr, ptr %14, align 8, !tbaa !11
  %119 = getelementptr inbounds nuw %struct.H5B2_internal_t, ptr %118, i32 0, i32 6
  store ptr %117, ptr %119, align 8, !tbaa !55
  br label %120

120:                                              ; preds = %114, %80, %75
  %121 = load i8, ptr %11, align 1, !tbaa !13, !range !17, !noundef !18
  %122 = trunc i8 %121 to i1
  br i1 %122, label %123, label %148

123:                                              ; preds = %120
  %124 = load ptr, ptr %14, align 8, !tbaa !11
  %125 = load ptr, ptr %9, align 8, !tbaa !8
  %126 = call i32 @H5B2__shadow_internal(ptr noundef %124, ptr noundef %125)
  %127 = icmp slt i32 %126, 0
  br i1 %127, label %128, label %147

128:                                              ; preds = %123
  br label %129

129:                                              ; preds = %128
  br label %130

130:                                              ; preds = %129
  br label %131

131:                                              ; preds = %130
  %132 = load i64, ptr @H5E_BTREE_g, align 8, !tbaa !19
  %133 = load i64, ptr @H5E_CANTCOPY_g, align 8, !tbaa !19
  %134 = call i32 (ptr, ptr, i32, i64, i64, ptr, ...) @H5E_printf_stack(ptr noundef @.str.1, ptr noundef @__func__.H5B2__protect_internal, i32 noundef 218, i64 noundef %132, i64 noundef %133, ptr noundef @.str.14)
  br label %135

135:                                              ; preds = %131
  br label %136

136:                                              ; preds = %135
  store i8 1, ptr %16, align 1, !tbaa !13
  %137 = load i8, ptr %16, align 1, !tbaa !13, !range !17, !noundef !18
  %138 = trunc i8 %137 to i1
  %139 = zext i1 %138 to i8
  store i8 %139, ptr %16, align 1, !tbaa !13
  br label %140

140:                                              ; preds = %136
  br label %141

141:                                              ; preds = %140
  br label %142

142:                                              ; preds = %141
  store ptr null, ptr %15, align 8, !tbaa !11
  br label %150

143:                                              ; No predecessors!
  br label %144

144:                                              ; preds = %143
  br label %145

145:                                              ; preds = %144
  br label %146

146:                                              ; preds = %145
  br label %147

147:                                              ; preds = %146, %123
  br label %148

148:                                              ; preds = %147, %120
  %149 = load ptr, ptr %14, align 8, !tbaa !11
  store ptr %149, ptr %15, align 8, !tbaa !11
  br label %150

150:                                              ; preds = %148, %142, %109, %70
  %151 = load ptr, ptr %15, align 8, !tbaa !11
  %152 = icmp ne ptr %151, null
  br i1 %152, label %218, label %153

153:                                              ; preds = %150
  %154 = load ptr, ptr %14, align 8, !tbaa !11
  %155 = icmp ne ptr %154, null
  br i1 %155, label %156, label %217

156:                                              ; preds = %153
  %157 = load ptr, ptr %14, align 8, !tbaa !11
  %158 = getelementptr inbounds nuw %struct.H5B2_internal_t, ptr %157, i32 0, i32 6
  %159 = load ptr, ptr %158, align 8, !tbaa !55
  %160 = icmp ne ptr %159, null
  br i1 %160, label %161, label %187

161:                                              ; preds = %156
  %162 = load ptr, ptr %14, align 8, !tbaa !11
  %163 = getelementptr inbounds nuw %struct.H5B2_internal_t, ptr %162, i32 0, i32 6
  %164 = load ptr, ptr %163, align 8, !tbaa !55
  %165 = load ptr, ptr %14, align 8, !tbaa !11
  %166 = call i32 @H5AC_proxy_entry_remove_child(ptr noundef %164, ptr noundef %165)
  %167 = icmp slt i32 %166, 0
  br i1 %167, label %168, label %184

168:                                              ; preds = %161
  br label %169

169:                                              ; preds = %168
  br label %170

170:                                              ; preds = %169
  br label %171

171:                                              ; preds = %170
  %172 = load i64, ptr @H5E_BTREE_g, align 8, !tbaa !19
  %173 = load i64, ptr @H5E_CANTUNDEPEND_g, align 8, !tbaa !19
  %174 = call i32 (ptr, ptr, i32, i64, i64, ptr, ...) @H5E_printf_stack(ptr noundef @.str.1, ptr noundef @__func__.H5B2__protect_internal, i32 noundef 233, i64 noundef %172, i64 noundef %173, ptr noundef @.str.15)
  br label %175

175:                                              ; preds = %171
  br label %176

176:                                              ; preds = %175
  store i8 1, ptr %16, align 1, !tbaa !13
  %177 = load i8, ptr %16, align 1, !tbaa !13, !range !17, !noundef !18
  %178 = trunc i8 %177 to i1
  %179 = zext i1 %178 to i8
  store i8 %179, ptr %16, align 1, !tbaa !13
  br label %180

180:                                              ; preds = %176
  br label %181

181:                                              ; preds = %180
  store ptr null, ptr %15, align 8, !tbaa !11
  br label %182

182:                                              ; preds = %181
  br label %183

183:                                              ; preds = %182
  br label %184

184:                                              ; preds = %183, %161
  %185 = load ptr, ptr %14, align 8, !tbaa !11
  %186 = getelementptr inbounds nuw %struct.H5B2_internal_t, ptr %185, i32 0, i32 6
  store ptr null, ptr %186, align 8, !tbaa !55
  br label %187

187:                                              ; preds = %184, %156
  %188 = load ptr, ptr %7, align 8, !tbaa !3
  %189 = getelementptr inbounds nuw %struct.H5B2_hdr_t, ptr %188, i32 0, i32 8
  %190 = load ptr, ptr %189, align 8, !tbaa !51
  %191 = load ptr, ptr %9, align 8, !tbaa !8
  %192 = getelementptr inbounds nuw %struct.H5B2_node_ptr_t, ptr %191, i32 0, i32 0
  %193 = load i64, ptr %192, align 8, !tbaa !53
  %194 = load ptr, ptr %14, align 8, !tbaa !11
  %195 = call i32 @H5AC_unprotect(ptr noundef %190, ptr noundef @H5AC_BT2_INT, i64 noundef %193, ptr noundef %194, i32 noundef 0)
  %196 = icmp slt i32 %195, 0
  br i1 %196, label %197, label %216

197:                                              ; preds = %187
  br label %198

198:                                              ; preds = %197
  br label %199

199:                                              ; preds = %198
  br label %200

200:                                              ; preds = %199
  %201 = load i64, ptr @H5E_BTREE_g, align 8, !tbaa !19
  %202 = load i64, ptr @H5E_CANTUNPROTECT_g, align 8, !tbaa !19
  %203 = load ptr, ptr %9, align 8, !tbaa !8
  %204 = getelementptr inbounds nuw %struct.H5B2_node_ptr_t, ptr %203, i32 0, i32 0
  %205 = load i64, ptr %204, align 8, !tbaa !53
  %206 = call i32 (ptr, ptr, i32, i64, i64, ptr, ...) @H5E_printf_stack(ptr noundef @.str.1, ptr noundef @__func__.H5B2__protect_internal, i32 noundef 241, i64 noundef %201, i64 noundef %202, ptr noundef @.str.16, i64 noundef %205)
  br label %207

207:                                              ; preds = %200
  br label %208

208:                                              ; preds = %207
  store i8 1, ptr %16, align 1, !tbaa !13
  %209 = load i8, ptr %16, align 1, !tbaa !13, !range !17, !noundef !18
  %210 = trunc i8 %209 to i1
  %211 = zext i1 %210 to i8
  store i8 %211, ptr %16, align 1, !tbaa !13
  br label %212

212:                                              ; preds = %208
  br label %213

213:                                              ; preds = %212
  store ptr null, ptr %15, align 8, !tbaa !11
  br label %214

214:                                              ; preds = %213
  br label %215

215:                                              ; preds = %214
  br label %216

216:                                              ; preds = %215, %187
  br label %217

217:                                              ; preds = %216, %153
  br label %218

218:                                              ; preds = %217, %150
  br label %219

219:                                              ; preds = %218, %24
  %220 = load ptr, ptr %15, align 8, !tbaa !11
  call void @llvm.lifetime.end.p0(i64 1, ptr %16) #5
  call void @llvm.lifetime.end.p0(i64 8, ptr %15) #5
  call void @llvm.lifetime.end.p0(i64 8, ptr %14) #5
  call void @llvm.lifetime.end.p0(i64 32, ptr %13) #5
  ret ptr %220
}