; Function Attrs: nounwind uwtable
define ptr @H5B2__protect_internal(ptr noundef %0, ptr noundef %1, ptr noundef captures(none) %2, i16 noundef zeroext %3, i1 noundef zeroext %4, i32 noundef %5) local_unnamed_addr #0 {
  %7 = alloca %struct.H5B2_internal_cache_ud_t, align 8
  call void @llvm.lifetime.start.p0(i64 32, ptr nonnull %7) #4
  %8 = load i8, ptr @H5B2_init_g, align 1, !tbaa !3, !range !7, !noundef !8
  %9 = trunc nuw i8 %8 to i1
  %10 = load i8, ptr @H5_libterm_g, align 1, !range !7
  %11 = trunc nuw i8 %10 to i1
  %12 = xor i1 %11, true
  %13 = select i1 %9, i1 true, i1 %12
  br i1 %13, label %14, label %.thread, !prof !9

14:                                               ; preds = %6
  %15 = getelementptr inbounds nuw i8, ptr %0, i64 288
  %16 = load ptr, ptr %15, align 8, !tbaa !46
  store ptr %16, ptr %7, align 8, !tbaa !51
  %17 = getelementptr inbounds nuw i8, ptr %7, i64 8
  store ptr %0, ptr %17, align 8, !tbaa !53
  %18 = getelementptr inbounds nuw i8, ptr %7, i64 16
  store ptr %1, ptr %18, align 8, !tbaa !54
  %19 = getelementptr inbounds nuw i8, ptr %2, i64 8
  %20 = load i16, ptr %19, align 8, !tbaa !55
  %21 = getelementptr inbounds nuw i8, ptr %7, i64 24
  store i16 %20, ptr %21, align 8, !tbaa !56
  %22 = getelementptr inbounds nuw i8, ptr %7, i64 26
  store i16 %3, ptr %22, align 2, !tbaa !57
  %23 = load i64, ptr %2, align 8, !tbaa !48
  %24 = call ptr @H5AC_protect(ptr noundef %16, ptr noundef nonnull @H5AC_BT2_INT, i64 noundef %23, ptr noundef nonnull %7, i32 noundef %5) #4
  %25 = icmp eq ptr %24, null
  br i1 %25, label %26, label %30

26:                                               ; preds = %14
  %27 = load i64, ptr @H5E_BTREE_g, align 8, !tbaa !10
  %28 = load i64, ptr @H5E_CANTPROTECT_g, align 8, !tbaa !10
  %29 = call i32 (ptr, ptr, i32, i64, i64, ptr, ...) @H5E_printf_stack(ptr noundef nonnull @.str.1, ptr noundef nonnull @__func__.H5B2__protect_internal, i32 noundef 204, i64 noundef %27, i64 noundef %28, ptr noundef nonnull @.str.12) #4
  br label %.thread

30:                                               ; preds = %14
  %31 = getelementptr inbounds nuw i8, ptr %0, i64 400
  %32 = load ptr, ptr %31, align 8, !tbaa !49
  %.not = icmp eq ptr %32, null
  br i1 %.not, label %47, label %33

33:                                               ; preds = %30
  %34 = getelementptr inbounds nuw i8, ptr %24, i64 280
  %35 = load ptr, ptr %34, align 8, !tbaa !50
  %36 = icmp eq ptr %35, null
  br i1 %36, label %37, label %47

37:                                               ; preds = %33
  %38 = load ptr, ptr %15, align 8, !tbaa !46
  %39 = call i32 @H5AC_proxy_entry_add_child(ptr noundef nonnull %32, ptr noundef %38, ptr noundef nonnull %24) #4
  %40 = icmp slt i32 %39, 0
  br i1 %40, label %41, label %45

41:                                               ; preds = %37
  %42 = load i64, ptr @H5E_BTREE_g, align 8, !tbaa !10
  %43 = load i64, ptr @H5E_CANTSET_g, align 8, !tbaa !10
  %44 = call i32 (ptr, ptr, i32, i64, i64, ptr, ...) @H5E_printf_stack(ptr noundef nonnull @.str.1, ptr noundef nonnull @__func__.H5B2__protect_internal, i32 noundef 211, i64 noundef %42, i64 noundef %43, ptr noundef nonnull @.str.13) #4
  br label %55

45:                                               ; preds = %37
  %46 = load ptr, ptr %31, align 8, !tbaa !49
  store ptr %46, ptr %34, align 8, !tbaa !50
  br label %47

47:                                               ; preds = %45, %33, %30
  br i1 %4, label %48, label %.thread

48:                                               ; preds = %47
  %49 = call fastcc i32 @H5B2__shadow_internal(ptr noundef %24, ptr noundef nonnull %2)
  %50 = icmp slt i32 %49, 0
  br i1 %50, label %51, label %.thread

51:                                               ; preds = %48
  %52 = load i64, ptr @H5E_BTREE_g, align 8, !tbaa !10
  %53 = load i64, ptr @H5E_CANTCOPY_g, align 8, !tbaa !10
  %54 = call i32 (ptr, ptr, i32, i64, i64, ptr, ...) @H5E_printf_stack(ptr noundef nonnull @.str.1, ptr noundef nonnull @__func__.H5B2__protect_internal, i32 noundef 218, i64 noundef %52, i64 noundef %53, ptr noundef nonnull @.str.14) #4
  br label %55

55:                                               ; preds = %41, %51
  %56 = getelementptr inbounds nuw i8, ptr %24, i64 280
  %57 = load ptr, ptr %56, align 8, !tbaa !50
  %.not39 = icmp eq ptr %57, null
  br i1 %.not39, label %66, label %58

58:                                               ; preds = %55
  %59 = call i32 @H5AC_proxy_entry_remove_child(ptr noundef nonnull %57, ptr noundef nonnull %24) #4
  %60 = icmp slt i32 %59, 0
  br i1 %60, label %61, label %65

61:                                               ; preds = %58
  %62 = load i64, ptr @H5E_BTREE_g, align 8, !tbaa !10
  %63 = load i64, ptr @H5E_CANTUNDEPEND_g, align 8, !tbaa !10
  %64 = call i32 (ptr, ptr, i32, i64, i64, ptr, ...) @H5E_printf_stack(ptr noundef nonnull @.str.1, ptr noundef nonnull @__func__.H5B2__protect_internal, i32 noundef 233, i64 noundef %62, i64 noundef %63, ptr noundef nonnull @.str.15) #4
  br label %65

65:                                               ; preds = %61, %58
  store ptr null, ptr %56, align 8, !tbaa !50
  br label %66

66:                                               ; preds = %65, %55
  %67 = load ptr, ptr %15, align 8, !tbaa !46
  %68 = load i64, ptr %2, align 8, !tbaa !48
  %69 = call i32 @H5AC_unprotect(ptr noundef %67, ptr noundef nonnull @H5AC_BT2_INT, i64 noundef %68, ptr noundef nonnull %24, i32 noundef 0) #4
  %70 = icmp slt i32 %69, 0
  br i1 %70, label %71, label %.thread

71:                                               ; preds = %66
  %72 = load i64, ptr @H5E_BTREE_g, align 8, !tbaa !10
  %73 = load i64, ptr @H5E_CANTUNPROTECT_g, align 8, !tbaa !10
  %74 = load i64, ptr %2, align 8, !tbaa !48
  %75 = call i32 (ptr, ptr, i32, i64, i64, ptr, ...) @H5E_printf_stack(ptr noundef nonnull @.str.1, ptr noundef nonnull @__func__.H5B2__protect_internal, i32 noundef 241, i64 noundef %72, i64 noundef %73, ptr noundef nonnull @.str.16, i64 noundef %74) #4
  br label %.thread

.thread:                                          ; preds = %26, %47, %48, %66, %71, %6
  %.0 = phi ptr [ null, %71 ], [ null, %66 ], [ null, %6 ], [ %24, %47 ], [ %24, %48 ], [ null, %26 ]
  call void @llvm.lifetime.end.p0(i64 32, ptr nonnull %7) #4
  ret ptr %.0
}